target datalayout = "e-m:e-p270:32:32-p271:32:32-p272:64:64-i64:64-i128:128-f80:128-n8:16:32:64-S128"
target triple = "x86_64-pc-linux-gnu"

%struct.scalar_config = type { ptr, ptr, i32 }

@.str.8 = private unnamed_addr constant [1 x i8] zeroinitializer, align 1
@git_gettext_enabled = external global i32, align 4
@the_repository = external global ptr, align 8
@.str.40 = private unnamed_addr constant [9 x i8] c"scalar.c\00", align 1
@.str.114 = private unnamed_addr constant [26 x i8] c"could not configure %s=%s\00", align 1
@__const.set_recommended_config.fsmonitor = private unnamed_addr constant { ptr, ptr, i32, [4 x i8] } { ptr @.str.115, ptr @.str.83, i32 0, [4 x i8] zeroinitializer }, align 8
@.str.116 = private unnamed_addr constant [22 x i8] c"log.excludeDecoration\00", align 1
@.str.117 = private unnamed_addr constant [7 x i8] c"scalar\00", align 1
@.str.118 = private unnamed_addr constant [8 x i8] c"created\00", align 1
@.str.119 = private unnamed_addr constant [16 x i8] c"refs/prefetch/*\00", align 1
@.str.120 = private unnamed_addr constant [42 x i8] c"could not configure log.excludeDecoration\00", align 1
@.str.121 = private unnamed_addr constant [7 x i8] c"exists\00", align 1

; Function Attrs: inlinehint nounwind uwtable
define internal i32 @git_config_set_multivar_gently(ptr noundef %0, ptr noundef %1, ptr noundef %2, i32 noundef %3) #5 {
  %5 = alloca ptr, align 8
  %6 = alloca ptr, align 8
  %7 = alloca ptr, align 8
  %8 = alloca i32, align 4
  store ptr %0, ptr %5, align 8, !tbaa !4
  store ptr %1, ptr %6, align 8, !tbaa !4
  store ptr %2, ptr %7, align 8, !tbaa !4
  store i32 %3, ptr %8, align 4, !tbaa !11
  %9 = load ptr, ptr @the_repository, align 8, !tbaa !43
  %10 = load ptr, ptr %5, align 8, !tbaa !4
  %11 = load ptr, ptr %6, align 8, !tbaa !4
  %12 = load ptr, ptr %7, align 8, !tbaa !4
  %13 = load i32, ptr %8, align 4, !tbaa !11
  %14 = call i32 @repo_config_set_multivar_gently(ptr noundef %9, ptr noundef %10, ptr noundef %11, ptr noundef %12, i32 noundef %13)
  ret i32 %14
}

; Function Attrs: inlinehint nounwind uwtable
define internal i32 @git_config_get_string(ptr noundef %0, ptr noundef %1) #5 {
  %3 = alloca ptr, align 8
  %4 = alloca ptr, align 8
  store ptr %0, ptr %3, align 8, !tbaa !4
  store ptr %1, ptr %4, align 8, !tbaa !13
  %5 = load ptr, ptr @the_repository, align 8, !tbaa !43
  %6 = load ptr, ptr %3, align 8, !tbaa !4
  %7 = load ptr, ptr %4, align 8, !tbaa !13
  %8 = call i32 @repo_config_get_string(ptr noundef %5, ptr noundef %6, ptr noundef %7)
  ret i32 %8
}

; Function Attrs: nounwind uwtable
define internal i32 @have_fsmonitor_support() #0 {
  %1 = call i32 @fsmonitor_ipc__is_supported()
  %2 = icmp ne i32 %1, 0
  br i1 %2, label %3, label %7

3:                                                ; preds = %0
  %4 = load ptr, ptr @the_repository, align 8, !tbaa !43
  %5 = call i32 @fsm_settings__get_reason(ptr noundef %4)
  %6 = icmp eq i32 %5, 1
  br label %7

7:                                                ; preds = %3, %0
  %8 = phi i1 [ false, %0 ], [ %6, %3 ]
  %9 = zext i1 %8 to i32
  ret i32 %9
}

; Function Attrs: inlinehint nounwind uwtable
define internal i32 @const_error() #5 {
  ret i32 -1
}

; Function Attrs: inlinehint nounwind uwtable
define internal ptr @_(ptr noundef %0) #5 {
  %2 = alloca ptr, align 8
  %3 = alloca ptr, align 8
  store ptr %0, ptr %3, align 8, !tbaa !4
  %4 = load ptr, ptr %3, align 8, !tbaa !4
  %5 = load i8, ptr %4, align 1, !tbaa !15
  %6 = icmp ne i8 %5, 0
  br i1 %6, label %8, label %7

7:                                                ; preds = %1
  store ptr @.str.8, ptr %2, align 8
  br label %16

8:                                                ; preds = %1
  %9 = load i32, ptr @git_gettext_enabled, align 4, !tbaa !11
  %10 = icmp ne i32 %9, 0
  br i1 %10, label %13, label %11

11:                                               ; preds = %8
  %12 = load ptr, ptr %3, align 8, !tbaa !4
  store ptr %12, ptr %2, align 8
  br label %16

13:                                               ; preds = %8
  %14 = load ptr, ptr %3, align 8, !tbaa !4
  %15 = call ptr @dcgettext(ptr noundef null, ptr noundef %14, i32 noundef 5) #12
  store ptr %15, ptr %2, align 8
  br label %16

16:                                               ; preds = %13, %11, %7
  %17 = load ptr, ptr %2, align 8
  ret ptr %17
}

; Function Attrs: nounwind uwtable
define internal i32 @set_recommended_config(i32 noundef %0) #0 {
  %2 = alloca i32, align 4
  %3 = alloca i32, align 4
  %4 = alloca [28 x %struct.scalar_config], align 16
  %5 = alloca i32, align 4
  %6 = alloca ptr, align 8
  %7 = alloca i32, align 4
  %8 = alloca %struct.scalar_config, align 8
  store i32 %0, ptr %3, align 4, !tbaa !11
  call void @llvm.lifetime.start.p0(i64 672, ptr %4) #12
  call void @llvm.memcpy.p0.p0.i64(ptr align 16 %4, ptr align 16 @__const.set_recommended_config.config, i64 672, i1 false)
  call void @llvm.lifetime.start.p0(i64 4, ptr %5) #12
  call void @llvm.lifetime.start.p0(i64 8, ptr %6) #12
  store i32 0, ptr %5, align 4, !tbaa !11
  br label %9

9:                                                ; preds = %39, %1
  %10 = load i32, ptr %5, align 4, !tbaa !11
  %11 = sext i32 %10 to i64
  %12 = getelementptr inbounds [28 x %struct.scalar_config], ptr %4, i64 0, i64 %11
  %13 = getelementptr inbounds nuw %struct.scalar_config, ptr %12, i32 0, i32 0
  %14 = load ptr, ptr %13, align 8, !tbaa !82
  %15 = icmp ne ptr %14, null
  br i1 %15, label %16, label %42

16:                                               ; preds = %9
  %17 = getelementptr inbounds [28 x %struct.scalar_config], ptr %4, i64 0, i64 0
  %18 = load i32, ptr %5, align 4, !tbaa !11
  %19 = sext i32 %18 to i64
  %20 = getelementptr inbounds %struct.scalar_config, ptr %17, i64 %19
  %21 = load i32, ptr %3, align 4, !tbaa !11
  %22 = call i32 @set_scalar_config(ptr noundef %20, i32 noundef %21)
  %23 = icmp ne i32 %22, 0
  br i1 %23, label %24, label %38

24:                                               ; preds = %16
  %25 = call ptr @_(ptr noundef @.str.114)
  %26 = load i32, ptr %5, align 4, !tbaa !11
  %27 = sext i32 %26 to i64
  %28 = getelementptr inbounds [28 x %struct.scalar_config], ptr %4, i64 0, i64 %27
  %29 = getelementptr inbounds nuw %struct.scalar_config, ptr %28, i32 0, i32 0
  %30 = load ptr, ptr %29, align 8, !tbaa !82
  %31 = load i32, ptr %5, align 4, !tbaa !11
  %32 = sext i32 %31 to i64
  %33 = getelementptr inbounds [28 x %struct.scalar_config], ptr %4, i64 0, i64 %32
  %34 = getelementptr inbounds nuw %struct.scalar_config, ptr %33, i32 0, i32 1
  %35 = load ptr, ptr %34, align 8, !tbaa !84
  %36 = call i32 (ptr, ...) @error(ptr noundef %25, ptr noundef %30, ptr noundef %35)
  %37 = call i32 @const_error()
  store i32 %37, ptr %2, align 4
  store i32 1, ptr %7, align 4
  br label %77

38:                                               ; preds = %16
  br label %39

39:                                               ; preds = %38
  %40 = load i32, ptr %5, align 4, !tbaa !11
  %41 = add nsw i32 %40, 1
  store i32 %41, ptr %5, align 4, !tbaa !11
  br label %9, !llvm.loop !85

42:                                               ; preds = %9
  %43 = call i32 @have_fsmonitor_support()
  %44 = icmp ne i32 %43, 0
  br i1 %44, label %45, label %61

45:                                               ; preds = %42
  call void @llvm.lifetime.start.p0(i64 24, ptr %8) #12
  call void @llvm.memcpy.p0.p0.i64(ptr align 8 %8, ptr align 8 @__const.set_recommended_config.fsmonitor, i64 24, i1 false)
  %46 = load i32, ptr %3, align 4, !tbaa !11
  %47 = call i32 @set_scalar_config(ptr noundef %8, i32 noundef %46)
  %48 = icmp ne i32 %47, 0
  br i1 %48, label %49, label %57

49:                                               ; preds = %45
  %50 = call ptr @_(ptr noundef @.str.114)
  %51 = getelementptr inbounds nuw %struct.scalar_config, ptr %8, i32 0, i32 0
  %52 = load ptr, ptr %51, align 8, !tbaa !82
  %53 = getelementptr inbounds nuw %struct.scalar_config, ptr %8, i32 0, i32 1
  %54 = load ptr, ptr %53, align 8, !tbaa !84
  %55 = call i32 (ptr, ...) @error(ptr noundef %50, ptr noundef %52, ptr noundef %54)
  %56 = call i32 @const_error()
  store i32 %56, ptr %2, align 4
  store i32 1, ptr %7, align 4
  br label %58

57:                                               ; preds = %45
  store i32 0, ptr %7, align 4
  br label %58

58:                                               ; preds = %57, %49
  call void @llvm.lifetime.end.p0(i64 24, ptr %8) #12
  %59 = load i32, ptr %7, align 4
  switch i32 %59, label %77 [
    i32 0, label %60
  ]

60:                                               ; preds = %58
  br label %61

61:                                               ; preds = %60, %42
  %62 = call i32 @git_config_get_string(ptr noundef @.str.116, ptr noundef %6)
  %63 = icmp ne i32 %62, 0
  br i1 %63, label %64, label %73

64:                                               ; preds = %61
  %65 = load ptr, ptr @the_repository, align 8, !tbaa !43
  call void @trace2_data_string_fl(ptr noundef @.str.40, i32 noundef 197, ptr noundef @.str.117, ptr noundef %65, ptr noundef @.str.116, ptr noundef @.str.118)
  %66 = call i32 @git_config_set_multivar_gently(ptr noundef @.str.116, ptr noundef @.str.119, ptr noundef inttoptr (i64 1 to ptr), i32 noundef 0)
  %67 = icmp ne i32 %66, 0
  br i1 %67, label %68, label %72

68:                                               ; preds = %64
  %69 = call ptr @_(ptr noundef @.str.120)
  %70 = call i32 (ptr, ...) @error(ptr noundef %69)
  %71 = call i32 @const_error()
  store i32 %71, ptr %2, align 4
  store i32 1, ptr %7, align 4
  br label %77

72:                                               ; preds = %64
  br label %76

73:                                               ; preds = %61
  %74 = load ptr, ptr @the_repository, align 8, !tbaa !43
  call void @trace2_data_string_fl(ptr noundef @.str.40, i32 noundef 205, ptr noundef @.str.117, ptr noundef %74, ptr noundef @.str.116, ptr noundef @.str.121)
  %75 = load ptr, ptr %6, align 8, !tbaa !4
  call void @free(ptr noundef %75) #12
  br label %76

76:                                               ; preds = %73, %72
  store i32 0, ptr %2, align 4
  store i32 1, ptr %7, align 4
  br label %77

77:                                               ; preds = %76, %68, %58, %24
  call void @llvm.lifetime.end.p0(i64 8, ptr %6) #12
  call void @llvm.lifetime.end.p0(i64 4, ptr %5) #12
  call void @llvm.lifetime.end.p0(i64 672, ptr %4) #12
  %78 = load i32, ptr %2, align 4
  ret i32 %78
}