; Function Attrs: nounwind uwtable
define internal fastcc range(i32 -1, 1) i32 @set_recommended_config(i32 noundef range(i32 0, 2) %0) unnamed_addr #2 {
  %2 = alloca ptr, align 8
  call void @llvm.lifetime.start.p0(i64 8, ptr nonnull %2) #18
  %3 = tail call fastcc i32 @set_scalar_config(ptr noundef @__const.set_recommended_config.config, i32 noundef %0)
  %.not1538 = icmp eq i32 %3, 0
  br i1 %.not1538, label %.lr.ph, label %._crit_edge

.lr.ph:                                           ; preds = %1, %4
  %indvars.iv39 = phi i64 [ %indvars.iv.next, %4 ], [ 0, %1 ]
  %indvars.iv.next = add nuw nsw i64 %indvars.iv39, 1
  %exitcond = icmp eq i64 %indvars.iv.next, 27
  br i1 %exitcond, label %15, label %4, !llvm.loop !73

4:                                                ; preds = %.lr.ph
  %5 = getelementptr inbounds nuw %struct.scalar_config, ptr @__const.set_recommended_config.config, i64 %indvars.iv.next
  %6 = tail call fastcc i32 @set_scalar_config(ptr noundef %5, i32 noundef %0)
  %.not15 = icmp eq i32 %6, 0
  br i1 %.not15, label %.lr.ph, label %._crit_edge.loopexit, !llvm.loop !73

._crit_edge.loopexit:                             ; preds = %4
  %7 = getelementptr inbounds nuw [28 x %struct.scalar_config], ptr @__const.set_recommended_config.config, i64 0, i64 %indvars.iv.next
  %8 = load ptr, ptr %7, align 8, !tbaa !74
  br label %._crit_edge

._crit_edge:                                      ; preds = %._crit_edge.loopexit, %1
  %.lcssa36 = phi ptr [ @.str.82, %1 ], [ %8, %._crit_edge.loopexit ]
  %.lcssa = phi ptr [ @__const.set_recommended_config.config, %1 ], [ %7, %._crit_edge.loopexit ]
  %9 = load i32, ptr @git_gettext_enabled, align 4, !tbaa !20
  %.not4.i = icmp eq i32 %9, 0
  br i1 %.not4.i, label %_.exit, label %10

10:                                               ; preds = %._crit_edge
  %11 = tail call ptr @dcgettext(ptr noundef null, ptr noundef nonnull @.str.114, i32 noundef 5) #18
  br label %_.exit

_.exit:                                           ; preds = %._crit_edge, %10
  %.0.i = phi ptr [ %11, %10 ], [ @.str.114, %._crit_edge ]
  %12 = getelementptr inbounds nuw i8, ptr %.lcssa, i64 8
  %13 = load ptr, ptr %12, align 8, !tbaa !76
  %14 = tail call i32 (ptr, ...) @error(ptr noundef %.0.i, ptr noundef nonnull %.lcssa36, ptr noundef %13) #18
  br label %39

15:                                               ; preds = %.lr.ph
  %16 = tail call i32 @fsmonitor_ipc__is_supported() #18
  %.not.i = icmp eq i32 %16, 0
  br i1 %.not.i, label %have_fsmonitor_support.exit.thread, label %have_fsmonitor_support.exit

have_fsmonitor_support.exit:                      ; preds = %15
  %17 = load ptr, ptr @the_repository, align 8, !tbaa !36
  %18 = tail call i32 @fsm_settings__get_reason(ptr noundef %17) #18
  %.not23 = icmp eq i32 %18, 1
  br i1 %.not23, label %19, label %have_fsmonitor_support.exit.thread

19:                                               ; preds = %have_fsmonitor_support.exit
  %20 = tail call fastcc i32 @set_scalar_config(ptr noundef @__const.set_recommended_config.fsmonitor, i32 noundef %0)
  %.not12 = icmp eq i32 %20, 0
  br i1 %.not12, label %have_fsmonitor_support.exit.thread, label %21

21:                                               ; preds = %19
  %22 = load i32, ptr @git_gettext_enabled, align 4, !tbaa !20
  %.not4.i16 = icmp eq i32 %22, 0
  br i1 %.not4.i16, label %_.exit18, label %23

23:                                               ; preds = %21
  %24 = tail call ptr @dcgettext(ptr noundef null, ptr noundef nonnull @.str.114, i32 noundef 5) #18
  br label %_.exit18

_.exit18:                                         ; preds = %21, %23
  %.0.i17 = phi ptr [ %24, %23 ], [ @.str.114, %21 ]
  %25 = tail call i32 (ptr, ...) @error(ptr noundef %.0.i17, ptr noundef nonnull @.str.115, ptr noundef nonnull @.str.83) #18
  br label %39

have_fsmonitor_support.exit.thread:               ; preds = %19, %15, %have_fsmonitor_support.exit
  %26 = load ptr, ptr @the_repository, align 8, !tbaa !36
  %27 = call i32 @repo_config_get_string(ptr noundef %26, ptr noundef nonnull @.str.116, ptr noundef nonnull %2) #18
  %.not13 = icmp eq i32 %27, 0
  %28 = load ptr, ptr @the_repository, align 8, !tbaa !36
  br i1 %.not13, label %37, label %29

29:                                               ; preds = %have_fsmonitor_support.exit.thread
  call void @trace2_data_string_fl(ptr noundef nonnull @.str.40, i32 noundef 197, ptr noundef nonnull @.str.117, ptr noundef %28, ptr noundef nonnull @.str.116, ptr noundef nonnull @.str.118) #18
  %30 = load ptr, ptr @the_repository, align 8, !tbaa !36
  %31 = call i32 @repo_config_set_multivar_gently(ptr noundef %30, ptr noundef nonnull @.str.116, ptr noundef nonnull @.str.119, ptr noundef nonnull inttoptr (i64 1 to ptr), i32 noundef 0) #18
  %.not14 = icmp eq i32 %31, 0
  br i1 %.not14, label %39, label %32

32:                                               ; preds = %29
  %33 = load i32, ptr @git_gettext_enabled, align 4, !tbaa !20
  %.not4.i19 = icmp eq i32 %33, 0
  br i1 %.not4.i19, label %_.exit21, label %34

34:                                               ; preds = %32
  %35 = call ptr @dcgettext(ptr noundef null, ptr noundef nonnull @.str.120, i32 noundef 5) #18
  br label %_.exit21

_.exit21:                                         ; preds = %32, %34
  %.0.i20 = phi ptr [ %35, %34 ], [ @.str.120, %32 ]
  %36 = call i32 (ptr, ...) @error(ptr noundef %.0.i20) #18
  br label %39

37:                                               ; preds = %have_fsmonitor_support.exit.thread
  call void @trace2_data_string_fl(ptr noundef nonnull @.str.40, i32 noundef 205, ptr noundef nonnull @.str.117, ptr noundef %28, ptr noundef nonnull @.str.116, ptr noundef nonnull @.str.121) #18
  %38 = load ptr, ptr %2, align 8, !tbaa !4
  call void @free(ptr noundef %38) #18
  br label %39

39:                                               ; preds = %_.exit18, %37, %29, %_.exit21, %_.exit
  %.010 = phi i32 [ -1, %_.exit ], [ -1, %_.exit21 ], [ -1, %_.exit18 ], [ 0, %29 ], [ 0, %37 ]
  call void @llvm.lifetime.end.p0(i64 8, ptr nonnull %2) #18
  ret i32 %.010
}